target datalayout = "e-m:e-p270:32:32-p271:32:32-p272:64:64-i64:64-i128:128-f80:128-n8:16:32:64-S128"
target triple = "x86_64-pc-linux-gnu"

@hf_generic_ext_status_type = internal global i32 0, align 4
@hf_generic_ext_status_flags = internal global i32 0, align 4
@hf_generic_ext_status_length = internal global i32 0, align 4
@hf_generic_ext_status_data = internal global i32 0, align 4

; Function Attrs: null_pointer_is_valid sspstrong uwtable
define internal i32 @dissect_aim_generic_ext_status_repl(ptr noundef %0, ptr noundef %1, ptr noundef %2) #0 {
  %4 = alloca ptr, align 8
  %5 = alloca ptr, align 8
  %6 = alloca ptr, align 8
  %7 = alloca i8, align 1
  %8 = alloca i32, align 4
  store ptr %0, ptr %4, align 8
  store ptr %1, ptr %5, align 8
  store ptr %2, ptr %6, align 8
  call void @llvm.lifetime.start.p0(i64 1, ptr %7) #13
  call void @llvm.lifetime.start.p0(i64 4, ptr %8) #13
  store i32 0, ptr %8, align 4
  %9 = load ptr, ptr %6, align 8
  %10 = load i32, ptr @hf_generic_ext_status_type, align 4
  %11 = load ptr, ptr %4, align 8
  %12 = load i32, ptr %8, align 4
  %13 = call ptr @proto_tree_add_item(ptr noundef %9, i32 noundef %10, ptr noundef %11, i32 noundef %12, i32 noundef 2, i32 noundef 0)
  %14 = load i32, ptr %8, align 4
  %15 = add i32 %14, 2
  store i32 %15, ptr %8, align 4
  %16 = load ptr, ptr %6, align 8
  %17 = load i32, ptr @hf_generic_ext_status_flags, align 4
  %18 = load ptr, ptr %4, align 8
  %19 = load i32, ptr %8, align 4
  %20 = call ptr @proto_tree_add_item(ptr noundef %16, i32 noundef %17, ptr noundef %18, i32 noundef %19, i32 noundef 1, i32 noundef 0)
  %21 = load i32, ptr %8, align 4
  %22 = add i32 %21, 1
  store i32 %22, ptr %8, align 4
  %23 = load ptr, ptr %6, align 8
  %24 = load i32, ptr @hf_generic_ext_status_length, align 4
  %25 = load ptr, ptr %4, align 8
  %26 = load i32, ptr %8, align 4
  %27 = call ptr @proto_tree_add_item(ptr noundef %23, i32 noundef %24, ptr noundef %25, i32 noundef %26, i32 noundef 1, i32 noundef 0)
  %28 = load ptr, ptr %4, align 8
  %29 = load i32, ptr %8, align 4
  %30 = call zeroext i8 @tvb_get_uint8(ptr noundef %28, i32 noundef %29)
  store i8 %30, ptr %7, align 1
  %31 = load i32, ptr %8, align 4
  %32 = add i32 %31, 1
  store i32 %32, ptr %8, align 4
  %33 = load ptr, ptr %6, align 8
  %34 = load i32, ptr @hf_generic_ext_status_data, align 4
  %35 = load ptr, ptr %4, align 8
  %36 = load i32, ptr %8, align 4
  %37 = load i8, ptr %7, align 1
  %38 = zext i8 %37 to i32
  %39 = call ptr @proto_tree_add_item(ptr noundef %33, i32 noundef %34, ptr noundef %35, i32 noundef %36, i32 noundef %38, i32 noundef 0)
  %40 = load i32, ptr %8, align 4
  %41 = add i32 %40, 1
  store i32 %41, ptr %8, align 4
  %42 = load i32, ptr %8, align 4
  call void @llvm.lifetime.end.p0(i64 4, ptr %8) #13
  call void @llvm.lifetime.end.p0(i64 1, ptr %7) #13
  ret i32 %42
}